target datalayout = "e-m:e-p270:32:32-p271:32:32-p272:64:64-i64:64-i128:128-f80:128-n8:16:32:64-S128"
target triple = "x86_64-pc-linux-gnu"

%struct._CandidateLocale = type { ptr }

@.str.129 = private unnamed_addr constant [7 x i8] c"LC_ALL\00", align 1
@_TARGET_LOCALES = internal global [4 x %struct._CandidateLocale] [%struct._CandidateLocale { ptr @.str.149 }, %struct._CandidateLocale { ptr @.str.150 }, %struct._CandidateLocale { ptr @.str.151 }, %struct._CandidateLocale zeroinitializer], align 16
@.str.131 = private unnamed_addr constant [1 x i8] zeroinitializer, align 1
@stderr = external global ptr, align 8
@.str.152 = private unnamed_addr constant [9 x i8] c"LC_CTYPE\00", align 1
@.str.153 = private unnamed_addr constant [52 x i8] c"Error setting LC_CTYPE, skipping C locale coercion\0A\00", align 1
@C_LOCALE_COERCION_WARNING = internal constant [143 x i8] c"Python detected LC_CTYPE=C: LC_CTYPE coerced to %.20s (set another locale or PYTHONCOERCECLOCALE=0 to disable this locale coercion behavior).\0A\00", align 16

; Function Attrs: nounwind uwtable
define internal i32 @_coerce_default_locale_settings(i32 noundef %0, ptr noundef %1) #1 {
  %3 = alloca i32, align 4
  %4 = alloca i32, align 4
  %5 = alloca ptr, align 8
  %6 = alloca ptr, align 8
  %7 = alloca i32, align 4
  store i32 %0, ptr %4, align 4, !tbaa !4
  store ptr %1, ptr %5, align 8, !tbaa !182
  call void @llvm.lifetime.start.p0(i64 8, ptr %6) #14
  %8 = load ptr, ptr %5, align 8, !tbaa !182
  %9 = getelementptr inbounds nuw %struct._CandidateLocale, ptr %8, i32 0, i32 0
  %10 = load ptr, ptr %9, align 8, !tbaa !184
  store ptr %10, ptr %6, align 8, !tbaa !180
  %11 = call ptr @_Py_SetLocaleFromEnv(i32 noundef 6)
  %12 = load ptr, ptr %6, align 8, !tbaa !180
  %13 = call i32 @setenv(ptr noundef @.str.152, ptr noundef %12, i32 noundef 1) #14
  %14 = icmp ne i32 %13, 0
  br i1 %14, label %15, label %18

15:                                               ; preds = %2
  %16 = load ptr, ptr @stderr, align 8, !tbaa !189
  %17 = call i32 (ptr, ptr, ...) @fprintf(ptr noundef %16, ptr noundef @.str.153) #14
  store i32 0, ptr %3, align 4
  store i32 1, ptr %7, align 4
  br label %27

18:                                               ; preds = %2
  %19 = load i32, ptr %4, align 4, !tbaa !4
  %20 = icmp ne i32 %19, 0
  br i1 %20, label %21, label %25

21:                                               ; preds = %18
  %22 = load ptr, ptr @stderr, align 8, !tbaa !189
  %23 = load ptr, ptr %6, align 8, !tbaa !180
  %24 = call i32 (ptr, ptr, ...) @fprintf(ptr noundef %22, ptr noundef @C_LOCALE_COERCION_WARNING, ptr noundef %23) #14
  br label %25

25:                                               ; preds = %21, %18
  %26 = call ptr @_Py_SetLocaleFromEnv(i32 noundef 6)
  store i32 1, ptr %3, align 4
  store i32 1, ptr %7, align 4
  br label %27

27:                                               ; preds = %25, %15
  call void @llvm.lifetime.end.p0(i64 8, ptr %6) #14
  %28 = load i32, ptr %3, align 4
  ret i32 %28
}

; Function Attrs: nounwind uwtable
define dso_local ptr @_Py_SetLocaleFromEnv(i32 noundef %0) #1 {
  %2 = alloca i32, align 4
  %3 = alloca ptr, align 8
  store i32 %0, ptr %2, align 4, !tbaa !4
  call void @llvm.lifetime.start.p0(i64 8, ptr %3) #14
  %4 = load i32, ptr %2, align 4, !tbaa !4
  %5 = call ptr @setlocale(i32 noundef %4, ptr noundef @.str.131) #14
  store ptr %5, ptr %3, align 8, !tbaa !180
  call void @_Py_ResetForceASCII()
  %6 = load ptr, ptr %3, align 8, !tbaa !180
  call void @llvm.lifetime.end.p0(i64 8, ptr %3) #14
  ret ptr %6
}

; Function Attrs: nounwind uwtable
define hidden i32 @_Py_CoerceLegacyLocale(i32 noundef %0) #1 {
  %2 = alloca i32, align 4
  %3 = alloca i32, align 4
  %4 = alloca i32, align 4
  %5 = alloca ptr, align 8
  %6 = alloca i32, align 4
  %7 = alloca ptr, align 8
  %8 = alloca ptr, align 8
  %9 = alloca ptr, align 8
  %10 = alloca ptr, align 8
  store i32 %0, ptr %3, align 4, !tbaa !4
  call void @llvm.lifetime.start.p0(i64 4, ptr %4) #14
  store i32 0, ptr %4, align 4, !tbaa !4
  call void @llvm.lifetime.start.p0(i64 8, ptr %5) #14
  store ptr null, ptr %5, align 8, !tbaa !180
  %11 = call ptr @setlocale(i32 noundef 0, ptr noundef null) #14
  %12 = call ptr @_PyMem_RawStrdup(ptr noundef %11)
  store ptr %12, ptr %5, align 8, !tbaa !180
  %13 = load ptr, ptr %5, align 8, !tbaa !180
  %14 = icmp eq ptr %13, null
  br i1 %14, label %15, label %17

15:                                               ; preds = %1
  %16 = load i32, ptr %4, align 4, !tbaa !4
  store i32 %16, ptr %2, align 4
  store i32 1, ptr %6, align 4
  br label %73

17:                                               ; preds = %1
  call void @llvm.lifetime.start.p0(i64 8, ptr %7) #14
  %18 = call ptr @getenv(ptr noundef @.str.129) #14
  store ptr %18, ptr %7, align 8, !tbaa !180
  %19 = load ptr, ptr %7, align 8, !tbaa !180
  %20 = icmp eq ptr %19, null
  br i1 %20, label %26, label %21

21:                                               ; preds = %17
  %22 = load ptr, ptr %7, align 8, !tbaa !180
  %23 = load i8, ptr %22, align 1, !tbaa !181
  %24 = sext i8 %23 to i32
  %25 = icmp eq i32 %24, 0
  br i1 %25, label %26, label %66

26:                                               ; preds = %21, %17
  call void @llvm.lifetime.start.p0(i64 8, ptr %8) #14
  store ptr null, ptr %8, align 8, !tbaa !182
  store ptr @_TARGET_LOCALES, ptr %8, align 8, !tbaa !182
  br label %27

27:                                               ; preds = %59, %26
  %28 = load ptr, ptr %8, align 8, !tbaa !182
  %29 = getelementptr inbounds nuw %struct._CandidateLocale, ptr %28, i32 0, i32 0
  %30 = load ptr, ptr %29, align 8, !tbaa !184
  %31 = icmp ne ptr %30, null
  br i1 %31, label %32, label %62

32:                                               ; preds = %27
  call void @llvm.lifetime.start.p0(i64 8, ptr %9) #14
  %33 = load ptr, ptr %8, align 8, !tbaa !182
  %34 = getelementptr inbounds nuw %struct._CandidateLocale, ptr %33, i32 0, i32 0
  %35 = load ptr, ptr %34, align 8, !tbaa !184
  %36 = call ptr @setlocale(i32 noundef 0, ptr noundef %35) #14
  store ptr %36, ptr %9, align 8, !tbaa !180
  %37 = load ptr, ptr %9, align 8, !tbaa !180
  %38 = icmp ne ptr %37, null
  br i1 %38, label %39, label %55

39:                                               ; preds = %32
  call void @llvm.lifetime.start.p0(i64 8, ptr %10) #14
  %40 = call ptr @nl_langinfo(i32 noundef 14) #14
  store ptr %40, ptr %10, align 8, !tbaa !180
  %41 = load ptr, ptr %10, align 8, !tbaa !180
  %42 = icmp ne ptr %41, null
  br i1 %42, label %43, label %48

43:                                               ; preds = %39
  %44 = load ptr, ptr %10, align 8, !tbaa !180
  %45 = load i8, ptr %44, align 1, !tbaa !181
  %46 = sext i8 %45 to i32
  %47 = icmp eq i32 %46, 0
  br i1 %47, label %48, label %50

48:                                               ; preds = %43, %39
  store ptr null, ptr %9, align 8, !tbaa !180
  %49 = call ptr @_Py_SetLocaleFromEnv(i32 noundef 0)
  store i32 4, ptr %6, align 4
  br label %54

50:                                               ; preds = %43
  %51 = load i32, ptr %3, align 4, !tbaa !4
  %52 = load ptr, ptr %8, align 8, !tbaa !182
  %53 = call i32 @_coerce_default_locale_settings(i32 noundef %51, ptr noundef %52)
  store i32 %53, ptr %4, align 4, !tbaa !4
  store i32 5, ptr %6, align 4
  br label %54

54:                                               ; preds = %50, %48
  call void @llvm.lifetime.end.p0(i64 8, ptr %10) #14
  br label %56

55:                                               ; preds = %32
  store i32 0, ptr %6, align 4
  br label %56

56:                                               ; preds = %55, %54
  call void @llvm.lifetime.end.p0(i64 8, ptr %9) #14
  %57 = load i32, ptr %6, align 4
  switch i32 %57, label %63 [
    i32 0, label %58
    i32 4, label %59
  ]

58:                                               ; preds = %56
  br label %59

59:                                               ; preds = %58, %56
  %60 = load ptr, ptr %8, align 8, !tbaa !182
  %61 = getelementptr %struct._CandidateLocale, ptr %60, i32 1
  store ptr %61, ptr %8, align 8, !tbaa !182
  br label %27, !llvm.loop !188

62:                                               ; preds = %27
  store i32 0, ptr %6, align 4
  br label %63

63:                                               ; preds = %62, %56
  call void @llvm.lifetime.end.p0(i64 8, ptr %8) #14
  %64 = load i32, ptr %6, align 4
  switch i32 %64, label %72 [
    i32 0, label %65
    i32 5, label %69
  ]

65:                                               ; preds = %63
  br label %66

66:                                               ; preds = %65, %21
  %67 = load ptr, ptr %5, align 8, !tbaa !180
  %68 = call ptr @setlocale(i32 noundef 0, ptr noundef %67) #14
  br label %69

69:                                               ; preds = %66, %63
  %70 = load ptr, ptr %5, align 8, !tbaa !180
  call void @PyMem_RawFree(ptr noundef %70)
  %71 = load i32, ptr %4, align 4, !tbaa !4
  store i32 %71, ptr %2, align 4
  store i32 1, ptr %6, align 4
  br label %72

72:                                               ; preds = %69, %63
  call void @llvm.lifetime.end.p0(i64 8, ptr %7) #14
  br label %73

73:                                               ; preds = %72, %15
  call void @llvm.lifetime.end.p0(i64 8, ptr %5) #14
  call void @llvm.lifetime.end.p0(i64 4, ptr %4) #14
  %74 = load i32, ptr %2, align 4
  ret i32 %74
}