; Function Attrs: nounwind uwtable
define hidden range(i32 0, 2) i32 @_Py_CoerceLegacyLocale(i32 noundef %0) local_unnamed_addr #1 {
  %2 = tail call ptr @setlocale(i32 noundef 0, ptr noundef null) #23
  %3 = tail call ptr @_PyMem_RawStrdup(ptr noundef %2) #23
  %4 = icmp eq ptr %3, null
  br i1 %4, label %35, label %5

5:                                                ; preds = %1
  %6 = tail call ptr @getenv(ptr noundef nonnull @.str.129) #23
  %7 = icmp eq ptr %6, null
  br i1 %7, label %.lr.ph.preheader, label %8

8:                                                ; preds = %5
  %9 = load i8, ptr %6, align 1, !tbaa !176
  %.not40 = icmp eq i8 %9, 0
  br i1 %.not40, label %.lr.ph.preheader, label %.thread

.lr.ph.preheader:                                 ; preds = %5, %8
  br label %.lr.ph

.lr.ph:                                           ; preds = %.lr.ph.preheader, %_coerce_default_locale_settings.exit
  %10 = phi ptr [ %32, %_coerce_default_locale_settings.exit ], [ @.str.149, %.lr.ph.preheader ]
  %.01735 = phi ptr [ %31, %_coerce_default_locale_settings.exit ], [ @_TARGET_LOCALES, %.lr.ph.preheader ]
  %11 = tail call ptr @setlocale(i32 noundef 0, ptr noundef nonnull %10) #23
  %.not27 = icmp eq ptr %11, null
  br i1 %.not27, label %_coerce_default_locale_settings.exit, label %12

12:                                               ; preds = %.lr.ph
  %13 = tail call ptr @nl_langinfo(i32 noundef 14) #23
  %.not28 = icmp eq ptr %13, null
  br i1 %.not28, label %17, label %14

14:                                               ; preds = %12
  %15 = load i8, ptr %13, align 1, !tbaa !176
  %16 = icmp eq i8 %15, 0
  br i1 %16, label %17, label %19

17:                                               ; preds = %14, %12
  %18 = tail call ptr @setlocale(i32 noundef 0, ptr noundef nonnull @.str.131) #23
  tail call void @_Py_ResetForceASCII() #23
  br label %_coerce_default_locale_settings.exit

19:                                               ; preds = %14
  %.017.val = load ptr, ptr %.01735, align 8, !tbaa !177
  %20 = tail call ptr @setlocale(i32 noundef 6, ptr noundef nonnull @.str.131) #23
  tail call void @_Py_ResetForceASCII() #23
  %21 = tail call i32 @setenv(ptr noundef nonnull @.str.152, ptr noundef %.017.val, i32 noundef 1) #23
  %.not.i = icmp eq i32 %21, 0
  br i1 %.not.i, label %25, label %22

22:                                               ; preds = %19
  %23 = load ptr, ptr @stderr, align 8, !tbaa !181
  %24 = tail call i64 @fwrite(ptr nonnull @.str.153, i64 51, i64 1, ptr %23) #25
  br label %34

25:                                               ; preds = %19
  %.not4.i = icmp eq i32 %0, 0
  br i1 %.not4.i, label %29, label %26

26:                                               ; preds = %25
  %27 = load ptr, ptr @stderr, align 8, !tbaa !181
  %28 = tail call i32 (ptr, ptr, ...) @fprintf(ptr noundef %27, ptr noundef nonnull @C_LOCALE_COERCION_WARNING, ptr noundef %.017.val) #26
  br label %29

29:                                               ; preds = %26, %25
  %30 = tail call ptr @setlocale(i32 noundef 6, ptr noundef nonnull @.str.131) #23
  tail call void @_Py_ResetForceASCII() #23
  br label %34

_coerce_default_locale_settings.exit:             ; preds = %17, %.lr.ph
  %31 = getelementptr i8, ptr %.01735, i64 8
  %32 = load ptr, ptr %31, align 8, !tbaa !177
  %.not = icmp eq ptr %32, null
  br i1 %.not, label %.thread, label %.lr.ph, !llvm.loop !182

.thread:                                          ; preds = %_coerce_default_locale_settings.exit, %8
  %33 = tail call ptr @setlocale(i32 noundef 0, ptr noundef nonnull %3) #23
  br label %34

34:                                               ; preds = %29, %22, %.thread
  %.5 = phi i32 [ 0, %.thread ], [ 1, %29 ], [ 0, %22 ]
  tail call void @PyMem_RawFree(ptr noundef nonnull %3) #23
  br label %35

35:                                               ; preds = %34, %1
  %.0 = phi i32 [ 0, %1 ], [ %.5, %34 ]
  ret i32 %.0
}